; ModuleID = '7/1097.c'
source_filename = "7/1097.c"
target datalayout = "e-m:e-p270:32:32-p271:32:32-p272:64:64-i64:64-f80:128-n8:16:32:64-S128"
target triple = "x86_64-pc-linux-gnu"

@.str = private unnamed_addr constant [3 x i8] c"%s\00", align 1

; Function Attrs: noinline nounwind uwtable
define dso_local i32 @main() #0 {
  %1 = alloca i32, align 4
  %2 = alloca [256 x i8], align 16
  %3 = alloca [256 x i8], align 16
  %4 = alloca [256 x i8], align 16
  %5 = alloca i32, align 4
  %6 = alloca i32, align 4
  %7 = alloca i32, align 4
  %8 = alloca i32, align 4
  %9 = alloca i32, align 4
  %10 = alloca i32, align 4
  store i32 0, i32* %1, align 4
  store i32 0, i32* %10, align 4
  %11 = getelementptr inbounds [256 x i8], [256 x i8]* %2, i64 0, i64 0
  %12 = call i32 (i8*, ...) @__isoc99_scanf(i8* getelementptr inbounds ([3 x i8], [3 x i8]* @.str, i64 0, i64 0), i8* %11)
  %13 = getelementptr inbounds [256 x i8], [256 x i8]* %3, i64 0, i64 0
  %14 = call i32 (i8*, ...) @__isoc99_scanf(i8* getelementptr inbounds ([3 x i8], [3 x i8]* @.str, i64 0, i64 0), i8* %13)
  %15 = getelementptr inbounds [256 x i8], [256 x i8]* %4, i64 0, i64 0
  %16 = call i32 (i8*, ...) @__isoc99_scanf(i8* getelementptr inbounds ([3 x i8], [3 x i8]* @.str, i64 0, i64 0), i8* %15)
  %17 = getelementptr inbounds [256 x i8], [256 x i8]* %2, i64 0, i64 0
  %18 = call i64 @strlen(i8* %17) #3
  %19 = trunc i64 %18 to i32
  store i32 %19, i32* %5, align 4
  %20 = getelementptr inbounds [256 x i8], [256 x i8]* %3, i64 0, i64 0
  %21 = call i64 @strlen(i8* %20) #3
  %22 = trunc i64 %21 to i32
  store i32 %22, i32* %6, align 4
  %23 = getelementptr inbounds [256 x i8], [256 x i8]* %4, i64 0, i64 0
  %24 = call i64 @strlen(i8* %23) #3
  %25 = trunc i64 %24 to i32
  store i32 %25, i32* %7, align 4
  store i32 0, i32* %8, align 4
  br label %26

26:                                               ; preds = %89, %0
  %27 = load i32, i32* %8, align 4
  %28 = load i32, i32* %5, align 4
  %29 = icmp slt i32 %27, %28
  br i1 %29, label %30, label %92

30:                                               ; preds = %26
  %31 = getelementptr inbounds [256 x i8], [256 x i8]* %3, i64 0, i64 0
  %32 = load i8, i8* %31, align 16
  %33 = sext i8 %32 to i32
  %34 = load i32, i32* %8, align 4
  %35 = sext i32 %34 to i64
  %36 = getelementptr inbounds [256 x i8], [256 x i8]* %2, i64 0, i64 %35
  %37 = load i8, i8* %36, align 1
  %38 = sext i8 %37 to i32
  %39 = icmp eq i32 %33, %38
  br i1 %39, label %40, label %88

40:                                               ; preds = %30
  store i32 1, i32* %9, align 4
  br label %41

41:                                               ; preds = %62, %40
  %42 = load i32, i32* %9, align 4
  %43 = load i32, i32* %6, align 4
  %44 = icmp slt i32 %42, %43
  br i1 %44, label %45, label %65

45:                                               ; preds = %41
  %46 = load i32, i32* %9, align 4
  %47 = sext i32 %46 to i64
  %48 = getelementptr inbounds [256 x i8], [256 x i8]* %3, i64 0, i64 %47
  %49 = load i8, i8* %48, align 1
  %50 = sext i8 %49 to i32
  %51 = load i32, i32* %8, align 4
  %52 = load i32, i32* %9, align 4
  %53 = add nsw i32 %51, %52
  %54 = sext i32 %53 to i64
  %55 = getelementptr inbounds [256 x i8], [256 x i8]* %2, i64 0, i64 %54
  %56 = load i8, i8* %55, align 1
  %57 = sext i8 %56 to i32
  %58 = icmp eq i32 %50, %57
  br i1 %58, label %59, label %60

59:                                               ; preds = %45
  store i32 0, i32* %10, align 4
  br label %61

60:                                               ; preds = %45
  store i32 1, i32* %10, align 4
  br label %61

61:                                               ; preds = %60, %59
  br label %62

62:                                               ; preds = %61
  %63 = load i32, i32* %9, align 4
  %64 = add nsw i32 %63, 1
  store i32 %64, i32* %9, align 4
  br label %41

65:                                               ; preds = %41
  %66 = load i32, i32* %10, align 4
  %67 = icmp eq i32 %66, 0
  br i1 %67, label %68, label %87

68:                                               ; preds = %65
  store i32 0, i32* %9, align 4
  br label %69

69:                                               ; preds = %83, %68
  %70 = load i32, i32* %9, align 4
  %71 = load i32, i32* %7, align 4
  %72 = icmp slt i32 %70, %71
  br i1 %72, label %73, label %86

73:                                               ; preds = %69
  %74 = load i32, i32* %9, align 4
  %75 = sext i32 %74 to i64
  %76 = getelementptr inbounds [256 x i8], [256 x i8]* %4, i64 0, i64 %75
  %77 = load i8, i8* %76, align 1
  %78 = load i32, i32* %8, align 4
  %79 = load i32, i32* %9, align 4
  %80 = add nsw i32 %78, %79
  %81 = sext i32 %80 to i64
  %82 = getelementptr inbounds [256 x i8], [256 x i8]* %2, i64 0, i64 %81
  store i8 %77, i8* %82, align 1
  br label %83

83:                                               ; preds = %73
  %84 = load i32, i32* %9, align 4
  %85 = add nsw i32 %84, 1
  store i32 %85, i32* %9, align 4
  br label %69

86:                                               ; preds = %69
  br label %92

87:                                               ; preds = %65
  br label %88

88:                                               ; preds = %87, %30
  br label %89

89:                                               ; preds = %88
  %90 = load i32, i32* %8, align 4
  %91 = add nsw i32 %90, 1
  store i32 %91, i32* %8, align 4
  br label %26

92:                                               ; preds = %86, %26
  %93 = getelementptr inbounds [256 x i8], [256 x i8]* %2, i64 0, i64 0
  %94 = call i32 (i8*, ...) @printf(i8* getelementptr inbounds ([3 x i8], [3 x i8]* @.str, i64 0, i64 0), i8* %93)
  ret i32 0
}

declare dso_local i32 @__isoc99_scanf(i8*, ...) #1

; Function Attrs: nounwind readonly
declare dso_local i64 @strlen(i8*) #2

declare dso_local i32 @printf(i8*, ...) #1


!llvm.module.flags = !{!0}
!llvm.ident = !{!1}

!0 = !{i32 1, !"wchar_size", i32 4}
!1 = !{!"clang version 10.0.0-4ubuntu1 "}
